-----BEGIN ENCRYPTED PRIVATE KEY-----
MIIFJDBWBgkqhkiG9w0BBQ0wSTAxBgkqhkiG9w0BBQwwJAQQuBcW7cqtqZIfieiD
b0ZauwICCAAwDAYIKoZIhvcNAgkFADAUBggqhkiG9w0DBwQIbx73/eaX5jgEggTI
N9CqMGN3a0eWO//Uhi+5CoBdIs83q2QDofraErTJKHDNMes+IvqWok7d1LZlkLT5
2wcY49AzZZolGWxgHclc1fdRfFZ9jzvgmMiVJuxQ3lQcjO655cFD8BLvve8TpW6K
bY28GM1RDWkJSsgVNkDmD32M5Qi29ipvctN1kq5kKKOnJScUZFenjBwSkz+ZVj2c
X/twdV0CS9gYi0RZJegX/Wy7RYdbHLlCCr+16ccmKwaObj8LM4hV9WDhy707dxAk
pV3Oe+ruqV6bAe1Vb1d/snJvMS6RydDW6dGZZKzwAPbMtG+N1CffaT6pdDxYNadV
0wwoumpNgH+QstTUzIlOKo6VZUwOZ1drxWjWvJ7udAngV+cxPp4T++ZJx3X+yfVh
EYWx4yoyL3FjCTm2tTedRODaiXqchu0E+8NTR7ehxR232oDvf4WzpbCHerIRhoUh
rdnJwy1PWJRNW0O5zPI64gwD8pEwW57tIAZkpvfnMGpJd2UgVTigNURuMLSq+lPd
lZRwR+F9i6Gb8bHdAU05me0uK/xxXk4qEcch8Yej6mn40BvZOccnrCbRNnq5/B87
x29OoKX/xmBO8DmmXt+L51E8SfA+bM+H5sXEStp8cGxe9a5hxpJGPMZOq7R/KxHA
oFDqS+ArUWw+MJlNsKWQPbQ8xRSZPaefYBKOB4R2XASYiq8wbAVIzweUCHpIS1A0
lHI4gEYZu8YBtmltyF0SaiFhGWiazTIP16l7GyHBUD0A1/ZkH2INb+5NFh+RSsey
TFvhq0IjRcfHPVrxp8EmxSPrlESLVzOdBkYpmw1bqT+LAuEvbPhlVh3Ge3GDkDW8
n4znDFr/GFsMvuzJcQK3o9t4ttx0VY+VNupO6hOg+w53Zbyq7QQQEcW40XDBx1MP
Sl02Qp1yEG1Cf/15Z799S1hRh1Krtsv3NfKhGpy+0LMo9X0TX07yJ167gr9mtePo
UWX/pzIjyEewxAccJE8g00M8MSD08lFIWgaZ+bWgy4TyBFACkR732qUFA2cxfyb3
6fHbgsRh8hYJKN/cmzCHu74gYKR+RdB08/3TZf8CaEipaKQ+/8n9btMOr26FpdBe
R555cMqrv97fk3/lV2VVdC2oaW/xOAevJOQHvfN5f8hYpbKBJCCsWHDKc1b+/4Jr
M0wMAKv7wAhNClWaBAHSmS2WBz5lZw3pE9FikwWG34i2hBStsFTozbdkzT6thRPG
ZcjItdO0WtVjV1YvcGigo3FW5EC8Z0YDk+Pf4tOslG7Kt2dhXjQZcNnN6RNTDf5A
3ecZxKxxoQw+as7XOkI14LqUX4vqmtl6r6/yQpBju05miyjnax/D9+ntY25417g2
vk7F0yDsxzfoOITS/spw0WrB/0e7DvTV6TxDUPH7FGynTs/h9cbrzS1fsTpqE9gs
ZfTYcwjlh7x/xcah3o6tDVKMfX93pJvJTy1ihNrPOk/i+crMQa5JrsJR190gbGBg
riL/pGxfZKXzrRGu95iwQwkh4WQSUYOEGMS+ACAKUg7+vlMH9tSZYcsPW73biyaG
PCOKc5369vIYwJjLP3ExDJvhEfVmfJ3oQ4dLmB4XeqQSJzGAVuqMIuPpxAVjVo+8
OWH+6KrTgYIk6w4Z6IHsFordTP5oiuIE
-----END ENCRYPTED PRIVATE KEY-----
Certificate:
    Data:
        Version: 3 (0x2)
        Serial Number: 4096 (0x1000)
        Signature Algorithm: sha256WithRSAEncryption
        Issuer: C=BD, ST=Sylhet, L=Akhalia, O=SUST, OU=SWE, CN=rising.com/emailAddress=rising@sust.edu
        Validity
            Not Before: Nov  4 05:05:10 2024 GMT
            Not After : Nov  4 05:05:10 2025 GMT
        Subject: C=BD, ST=Sylhet, O=SUST, OU=CSE, CN=example.com/emailAddress=example@sust.edu
        Subject Public Key Info:
            Public Key Algorithm: rsaEncryption
                Public-Key: (2048 bit)
                Modulus:
                    00:c5:51:61:e5:7a:d0:9c:98:cd:af:fe:fd:47:3d:
                    26:78:e9:d7:4c:da:96:dd:7b:12:9d:2d:af:04:94:
                    98:fb:be:b1:bb:ac:49:82:c4:fc:ab:7f:d6:be:fb:
                    33:6a:e9:38:fe:78:70:bd:ef:7c:c9:47:17:43:d7:
                    b8:1a:e8:5f:7b:86:44:2f:2e:fb:6a:f3:7d:c0:9b:
                    21:13:fc:dc:2c:b2:40:af:c8:06:cf:d1:8e:26:53:
                    0c:66:59:12:79:a9:bf:94:31:a8:e3:b6:c2:47:24:
                    6a:7d:3a:58:2f:0b:1e:5c:f3:20:29:73:b2:17:56:
                    ce:30:9d:67:cb:9b:19:fc:a6:f0:6c:7a:17:a4:35:
                    17:ca:12:56:68:53:04:01:e4:e0:e3:46:f8:d1:b6:
                    19:0e:e0:41:60:d3:65:33:83:7a:f5:f6:74:7a:67:
                    18:6a:46:3c:2a:96:94:6d:73:e7:24:be:76:95:9f:
                    40:a6:0c:03:b0:b9:06:e2:08:ca:4e:88:9e:ef:66:
                    cd:95:5f:1d:db:bd:1b:7a:b5:01:e0:fc:46:41:70:
                    8f:e1:99:84:08:88:55:0e:3d:2d:df:85:87:d0:2f:
                    e5:e8:1b:93:51:15:d3:26:95:3f:7d:8e:ee:99:14:
                    e3:84:9a:3e:62:08:49:1b:e4:ad:a4:82:ef:03:79:
                    b8:5b
                Exponent: 65537 (0x10001)
        X509v3 extensions:
            X509v3 Basic Constraints: 
                CA:FALSE
            X509v3 Key Usage: 
                Digital Signature, Non Repudiation, Key Encipherment
            X509v3 Subject Alternative Name: 
                DNS:example.com, DNS:www.example.com
            X509v3 Subject Key Identifier: 
                7D:B8:6B:EC:B6:97:E8:1C:D9:4D:BB:7B:71:9F:C8:87:DC:BB:8F:90
            X509v3 Authority Key Identifier: 
                C1:CD:A6:01:C5:FD:D2:B5:44:8C:5B:D6:2C:0A:29:06:79:B5:85:AE
    Signature Algorithm: sha256WithRSAEncryption
    Signature Value:
        b9:e5:8d:0d:a7:c2:68:8e:93:85:6e:24:50:c5:e7:e6:5c:79:
        d4:5f:7b:d0:cb:1e:f2:c7:91:9a:41:c2:8f:3a:f1:ac:75:49:
        cd:ed:13:5a:62:a9:4a:95:8c:ab:86:8c:94:bb:11:9c:30:2a:
        a1:b7:5f:4a:3a:0a:54:57:43:39:db:05:ae:b2:da:a5:09:61:
        25:53:e6:6a:7c:ae:29:a6:13:62:9b:05:dd:62:8f:06:cf:64:
        2b:8b:d5:27:e8:a5:bb:5f:b9:b9:12:ae:7b:d2:59:5c:17:eb:
        10:ab:c8:19:5f:73:a7:c0:57:4b:d3:cd:84:00:e3:6f:2d:53:
        e9:a1:cf:76:83:d8:0b:21:73:6b:d3:e8:32:31:4f:24:ca:6b:
        52:3c:06:d8:a8:83:c7:69:10:b4:bd:42:21:c3:97:06:9e:74:
        46:8f:90:1d:49:72:ac:25:57:d3:bc:3d:b7:0b:b4:f4:9e:f3:
        f6:c0:4d:2c:33:51:56:64:f7:dc:3d:73:f9:0f:19:b7:3e:f9:
        43:5f:9e:37:cc:38:22:4e:95:6b:ac:99:49:ee:66:ca:71:40:
        0a:44:a4:2d:d5:0d:77:54:f6:c5:91:67:89:52:63:f6:91:c0:
        43:ab:ba:31:6b:e0:5f:78:09:b9:fb:83:b1:77:a0:4c:36:10:
        98:48:37:ce
-----BEGIN CERTIFICATE-----
MIID9jCCAt6gAwIBAgICEAAwDQYJKoZIhvcNAQELBQAwgYIxCzAJBgNVBAYTAkJE
MQ8wDQYDVQQIDAZTeWxoZXQxEDAOBgNVBAcMB0FraGFsaWExDTALBgNVBAoMBFNV
U1QxDDAKBgNVBAsMA1NXRTETMBEGA1UEAwwKcmlzaW5nLmNvbTEeMBwGCSqGSIb3
DQEJARYPcmlzaW5nQHN1c3QuZWR1MB4XDTI0MTEwNDA1MDUxMFoXDTI1MTEwNDA1
MDUxMFowcjELMAkGA1UEBhMCQkQxDzANBgNVBAgMBlN5bGhldDENMAsGA1UECgwE
U1VTVDEMMAoGA1UECwwDQ1NFMRQwEgYDVQQDDAtleGFtcGxlLmNvbTEfMB0GCSqG
SIb3DQEJARYQZXhhbXBsZUBzdXN0LmVkdTCCASIwDQYJKoZIhvcNAQEBBQADggEP
ADCCAQoCggEBAMVRYeV60JyYza/+/Uc9Jnjp10zalt17Ep0trwSUmPu+sbusSYLE
/Kt/1r77M2rpOP54cL3vfMlHF0PXuBroX3uGRC8u+2rzfcCbIRP83CyyQK/IBs/R
jiZTDGZZEnmpv5QxqOO2wkckan06WC8LHlzzIClzshdWzjCdZ8ubGfym8Gx6F6Q1
F8oSVmhTBAHk4ONG+NG2GQ7gQWDTZTODevX2dHpnGGpGPCqWlG1z5yS+dpWfQKYM
A7C5BuIIyk6Inu9mzZVfHdu9G3q1AeD8RkFwj+GZhAiIVQ49Ld+Fh9Av5egbk1EV
0yaVP32O7pkU44SaPmIISRvkraSC7wN5uFsCAwEAAaOBhDCBgTAJBgNVHRMEAjAA
MAsGA1UdDwQEAwIF4DAnBgNVHREEIDAeggtleGFtcGxlLmNvbYIPd3d3LmV4YW1w
bGUuY29tMB0GA1UdDgQWBBR9uGvstpfoHNlNu3txn8iH3LuPkDAfBgNVHSMEGDAW
gBTBzaYBxf3StUSMW9YsCikGebWFrjANBgkqhkiG9w0BAQsFAAOCAQEAueWNDafC
aI6ThW4kUMXn5lx51F970Mse8seRmkHCjzrxrHVJze0TWmKpSpWMq4aMlLsRnDAq
obdfSjoKVFdDOdsFrrLapQlhJVPmanyuKaYTYpsF3WKPBs9kK4vVJ+ilu1+5uRKu
e9JZXBfrEKvIGV9zp8BXS9PNhADjby1T6aHPdoPYCyFza9PoMjFPJMprUjwG2KiD
x2kQtL1CIcOXBp50Ro+QHUlyrCVX07w9twu09J7z9sBNLDNRVmT33D1z+Q8Ztz75
Q1+eN8w4Ik6Va6yZSe5mynFACkSkLdUNd1T2xZFniVJj9pHAQ6u6MWvgX3gJufuD
sXegTDYQmEg3zg==
-----END CERTIFICATE-----
